; Function Attrs: mustprogress nofree norecurse nosync nounwind willreturn memory(argmem: write) uwtable
define void @_ZN7rocksdb6Logger9CloseImplEv(ptr dead_on_unwind noalias writable writeonly sret(%"class.rocksdb::Status") align 8 captures(none) initializes((0, 6), (8, 16)) %0, ptr nonnull readnone align 8 captures(none) %1) unnamed_addr #14 align 2 personality ptr @__gxx_personality_v0 {
  store i8 3, ptr %0, align 8, !tbaa !103, !alias.scope !225
  %3 = getelementptr inbounds nuw i8, ptr %0, i64 1
  store i8 0, ptr %3, align 1, !tbaa !114, !alias.scope !225
  %4 = getelementptr inbounds nuw i8, ptr %0, i64 2
  %5 = getelementptr inbounds nuw i8, ptr %0, i64 8
  store ptr null, ptr %5, align 8, !tbaa !127, !alias.scope !225
  store i32 0, ptr %4, align 2, !alias.scope !225
  ret void
}